
/home/docker/workspace/EE219-ICS/projects/proj/sw/build/demo-riscv64-mycpu.elf:     file format elf64-littleriscv


Disassembly of section .text:

0000000080000000 <_start>:
    80000000:	00000413          	li	s0,0
    80000004:	00009117          	auipc	sp,0x9
    80000008:	ffc10113          	addi	sp,sp,-4 # 80009000 <_end>
    8000000c:	1e8000ef          	jal	ra,800001f4 <_trm_init>

0000000080000010 <main>:
    80000010:	fe010113          	addi	sp,sp,-32
    80000014:	20205737          	lui	a4,0x20205
    80000018:	404097b7          	lui	a5,0x40409
    8000001c:	00001eb7          	lui	t4,0x1
    80000020:	00813823          	sd	s0,16(sp)
    80000024:	00913423          	sd	s1,8(sp)
    80000028:	04041437          	lui	s0,0x4041
    8000002c:	10100e13          	li	t3,257
    80000030:	00271713          	slli	a4,a4,0x2
    80000034:	ffffff37          	lui	t5,0xfffff
    80000038:	000064b7          	lui	s1,0x6
    8000003c:	00179793          	slli	a5,a5,0x1
    80000040:	01213023          	sd	s2,0(sp)
    80000044:	c40e8f93          	addi	t6,t4,-960 # c40 <_entry_offset+0xc40>
    80000048:	00113c23          	sd	ra,24(sp)
    8000004c:	00008693          	mv	a3,ra
    80000050:	00010513          	mv	a0,sp
    80000054:	00018593          	mv	a1,gp
    80000058:	93040413          	addi	s0,s0,-1744 # 4040930 <_entry_offset+0x4040930>
    8000005c:	00000913          	li	s2,0
    80000060:	017e1e13          	slli	t3,t3,0x17
    80000064:	c4070393          	addi	t2,a4,-960 # 20204c40 <_entry_offset+0x20204c40>
    80000068:	00000613          	li	a2,0
    8000006c:	3c0f0f13          	addi	t5,t5,960 # fffffffffffff3c0 <_end+0xffffffff7fff63c0>
    80000070:	260e8e93          	addi	t4,t4,608
    80000074:	20048493          	addi	s1,s1,512 # 6200 <_entry_offset+0x6200>
    80000078:	60078293          	addi	t0,a5,1536 # 40409600 <_entry_offset+0x40409600>
    8000007c:	00391813          	slli	a6,s2,0x3
    80000080:	00541313          	slli	t1,s0,0x5
    80000084:	00780833          	add	a6,a6,t2
    80000088:	00000893          	li	a7,0
    8000008c:	02c36507          	0x2c36507
    80000090:	01e807b3          	add	a5,a6,t5
    80000094:	000e0713          	mv	a4,t3
    80000098:	02c76687          	0x2c76687
    8000009c:	06a685d7          	0x6a685d7
    800000a0:	02c7e5a7          	0x2c7e5a7
    800000a4:	00878793          	addi	a5,a5,8
    800000a8:	04070713          	addi	a4,a4,64
    800000ac:	fef816e3          	bne	a6,a5,80000098 <main+0x88>
    800000b0:	18888893          	addi	a7,a7,392
    800000b4:	06030313          	addi	t1,t1,96
    800000b8:	01f80833          	add	a6,a6,t6
    800000bc:	fdd898e3          	bne	a7,t4,8000008c <main+0x7c>
    800000c0:	009e0e33          	add	t3,t3,s1
    800000c4:	01190933          	add	s2,s2,a7
    800000c8:	00140413          	addi	s0,s0,1
    800000cc:	fa5e18e3          	bne	t3,t0,8000007c <main+0x6c>
    800000d0:	000817b7          	lui	a5,0x81
    800000d4:	202075b7          	lui	a1,0x20207
    800000d8:	81378793          	addi	a5,a5,-2029 # 80813 <_entry_offset+0x80813>
    800000dc:	000098b7          	lui	a7,0x9
    800000e0:	00012837          	lui	a6,0x12
    800000e4:	00259593          	slli	a1,a1,0x2
    800000e8:	00c79793          	slli	a5,a5,0xc
    800000ec:	00000713          	li	a4,0
    800000f0:	30088893          	addi	a7,a7,768 # 9300 <_entry_offset+0x9300>
    800000f4:	60080813          	addi	a6,a6,1536 # 12600 <_entry_offset+0x12600>
    800000f8:	30058593          	addi	a1,a1,768 # 20207300 <_entry_offset+0x20207300>
    800000fc:	02e7e687          	0x2e7e687
    80000100:	01178633          	add	a2,a5,a7
    80000104:	02e66507          	0x2e66507
    80000108:	02a686d7          	0x2a686d7
    8000010c:	01078633          	add	a2,a5,a6
    80000110:	02e66507          	0x2e66507
    80000114:	02a6d6d7          	0x2a6d6d7
    80000118:	02e7e6a7          	0x2e7e6a7
    8000011c:	04078793          	addi	a5,a5,64
    80000120:	fcb79ee3          	bne	a5,a1,800000fc <main+0xec>
    80000124:	20205eb7          	lui	t4,0x20205
    80000128:	c1de8e93          	addi	t4,t4,-995 # 20204c1d <_entry_offset+0x20204c1d>
    8000012c:	04041337          	lui	t1,0x4041
    80000130:	000012b7          	lui	t0,0x1
    80000134:	00002fb7          	lui	t6,0x2
    80000138:	002e9e93          	slli	t4,t4,0x2
    8000013c:	00000f13          	li	t5,0
    80000140:	00531313          	slli	t1,t1,0x5
    80000144:	0c400e13          	li	t3,196
    80000148:	c4028293          	addi	t0,t0,-960 # c40 <_entry_offset+0xc40>
    8000014c:	4c0f8f93          	addi	t6,t6,1216 # 24c0 <_entry_offset+0x24c0>
    80000150:	000e8593          	mv	a1,t4
    80000154:	000f0893          	mv	a7,t5
    80000158:	00000813          	li	a6,0
    8000015c:	00688733          	add	a4,a7,t1
    80000160:	f9058793          	addi	a5,a1,-112
    80000164:	ffc7a603          	lw	a2,-4(a5)
    80000168:	00878793          	addi	a5,a5,8
    8000016c:	00470713          	addi	a4,a4,4
    80000170:	fec70e23          	sb	a2,-4(a4)
    80000174:	ff87a603          	lw	a2,-8(a5)
    80000178:	fec70ea3          	sb	a2,-3(a4)
    8000017c:	0647a603          	lw	a2,100(a5)
    80000180:	fec70f23          	sb	a2,-2(a4)
    80000184:	0687a603          	lw	a2,104(a5)
    80000188:	fec70fa3          	sb	a2,-1(a4)
    8000018c:	fcf59ce3          	bne	a1,a5,80000164 <main+0x154>
    80000190:	00e8081b          	addiw	a6,a6,14
    80000194:	03888893          	addi	a7,a7,56
    80000198:	0e058593          	addi	a1,a1,224
    8000019c:	fdc810e3          	bne	a6,t3,8000015c <main+0x14c>
    800001a0:	310f0f13          	addi	t5,t5,784
    800001a4:	005e8eb3          	add	t4,t4,t0
    800001a8:	fbff14e3          	bne	t5,t6,80000150 <main+0x140>
    800001ac:	40411637          	lui	a2,0x40411
    800001b0:	040417b7          	lui	a5,0x4041
    800001b4:	00161613          	slli	a2,a2,0x1
    800001b8:	00579793          	slli	a5,a5,0x5
    800001bc:	00000713          	li	a4,0
    800001c0:	4c060613          	addi	a2,a2,1216 # 404114c0 <_entry_offset+0x404114c0>
    800001c4:	02e7e687          	0x2e7e687
    800001c8:	02e6e557          	0x2e6e557
    800001cc:	02e7e527          	0x2e7e527
    800001d0:	04078793          	addi	a5,a5,64 # 4041040 <_entry_offset+0x4041040>
    800001d4:	fec798e3          	bne	a5,a2,800001c4 <main+0x1b4>
    800001d8:	01813083          	ld	ra,24(sp)
    800001dc:	01013403          	ld	s0,16(sp)
    800001e0:	00813483          	ld	s1,8(sp)
    800001e4:	00013903          	ld	s2,0(sp)
    800001e8:	00000513          	li	a0,0
    800001ec:	02010113          	addi	sp,sp,32
    800001f0:	00008067          	ret

00000000800001f4 <_trm_init>:
    800001f4:	ff010113          	addi	sp,sp,-16
    800001f8:	00000517          	auipc	a0,0x0
    800001fc:	02050513          	addi	a0,a0,32 # 80000218 <mainargs>
    80000200:	00113423          	sd	ra,8(sp)
    80000204:	e0dff0ef          	jal	ra,80000010 <main>
    80000208:	00050513          	mv	a0,a0
    8000020c:	0000006b          	0x6b
    80000210:	0000006f          	j	80000210 <_trm_init+0x1c>
